target datalayout = "e-m:e-p270:32:32-p271:32:32-p272:64:64-i64:64-i128:128-f80:128-n8:16:32:64-S128"
target triple = "x86_64-pc-linux-gnu"

; Function Attrs: alwaysinline nounwind uwtable
define internal void @copy_c(ptr noalias noundef %0, i64 noundef %1, ptr noalias noundef %2, i64 noundef %3, i32 noundef %4, i32 noundef %5) #6 {
  %7 = alloca ptr, align 8
  %8 = alloca i64, align 8
  %9 = alloca ptr, align 8
  %10 = alloca i64, align 8
  %11 = alloca i32, align 4
  %12 = alloca i32, align 4
  store ptr %0, ptr %7, align 8, !tbaa !10
  store i64 %1, ptr %8, align 8, !tbaa !12
  store ptr %2, ptr %9, align 8, !tbaa !10
  store i64 %3, ptr %10, align 8, !tbaa !12
  store i32 %4, ptr %11, align 4, !tbaa !19
  store i32 %5, ptr %12, align 4, !tbaa !19
  br label %13

13:                                               ; preds = %25, %6
  %14 = load ptr, ptr %7, align 8, !tbaa !10
  %15 = load ptr, ptr %9, align 8, !tbaa !10
  %16 = load i32, ptr %11, align 4, !tbaa !19
  %17 = sext i32 %16 to i64
  %18 = mul i64 %17, 2
  call void @llvm.memcpy.p0.p0.i64(ptr align 1 %14, ptr align 1 %15, i64 %18, i1 false)
  %19 = load i64, ptr %8, align 8, !tbaa !12
  %20 = load ptr, ptr %7, align 8, !tbaa !10
  %21 = getelementptr inbounds i8, ptr %20, i64 %19
  store ptr %21, ptr %7, align 8, !tbaa !10
  %22 = load i64, ptr %10, align 8, !tbaa !12
  %23 = load ptr, ptr %9, align 8, !tbaa !10
  %24 = getelementptr inbounds i8, ptr %23, i64 %22
  store ptr %24, ptr %9, align 8, !tbaa !10
  br label %25

25:                                               ; preds = %13
  %26 = load i32, ptr %12, align 4, !tbaa !19
  %27 = add nsw i32 %26, -1
  store i32 %27, ptr %12, align 4, !tbaa !19
  %28 = icmp ne i32 %27, 0
  br i1 %28, label %13, label %29, !llvm.loop !93

29:                                               ; preds = %25
  ret void
}

; Function Attrs: nounwind uwtable
define internal void @copy64_c(ptr noundef %0, i64 noundef %1, ptr noundef %2, i64 noundef %3, i32 noundef %4, i32 noundef %5, i32 noundef %6) #1 {
  %8 = alloca ptr, align 8
  %9 = alloca i64, align 8
  %10 = alloca ptr, align 8
  %11 = alloca i64, align 8
  %12 = alloca i32, align 4
  %13 = alloca i32, align 4
  %14 = alloca i32, align 4
  store ptr %0, ptr %8, align 8, !tbaa !10
  store i64 %1, ptr %9, align 8, !tbaa !12
  store ptr %2, ptr %10, align 8, !tbaa !10
  store i64 %3, ptr %11, align 8, !tbaa !12
  store i32 %4, ptr %12, align 4, !tbaa !19
  store i32 %5, ptr %13, align 4, !tbaa !19
  store i32 %6, ptr %14, align 4, !tbaa !19
  %15 = load ptr, ptr %8, align 8, !tbaa !10
  %16 = load i64, ptr %9, align 8, !tbaa !12
  %17 = load ptr, ptr %10, align 8, !tbaa !10
  %18 = load i64, ptr %11, align 8, !tbaa !12
  %19 = load i32, ptr %12, align 4, !tbaa !19
  call void @copy_c(ptr noundef %15, i64 noundef %16, ptr noundef %17, i64 noundef %18, i32 noundef 64, i32 noundef %19)
  ret void
}