; Function Attrs: nofree norecurse nosync nounwind memory(argmem: readwrite) uwtable
define internal void @copy64_c(ptr noundef writeonly captures(none) %0, i64 noundef %1, ptr noundef readonly captures(none) %2, i64 noundef %3, i32 noundef %4, i32 %5, i32 %6) #2 {
  br label %8

8:                                                ; preds = %8, %7
  %.08.i = phi ptr [ %2, %7 ], [ %10, %8 ]
  %.07.i = phi ptr [ %0, %7 ], [ %9, %8 ]
  %.0.i = phi i32 [ %4, %7 ], [ %11, %8 ]
  tail call void @llvm.memcpy.p0.p0.i64(ptr noundef nonnull align 1 dereferenceable(128) %.07.i, ptr noundef nonnull align 1 dereferenceable(128) %.08.i, i64 128, i1 false), !alias.scope !83
  %9 = getelementptr inbounds i8, ptr %.07.i, i64 %1
  %10 = getelementptr inbounds i8, ptr %.08.i, i64 %3
  %11 = add nsw i32 %.0.i, -1
  %.not.i = icmp eq i32 %11, 0
  br i1 %.not.i, label %copy_c.exit, label %8, !llvm.loop !87

copy_c.exit:                                      ; preds = %8
  ret void
}